target datalayout = "e-m:e-p270:32:32-p271:32:32-p272:64:64-i64:64-i128:128-f80:128-n8:16:32:64-S128"
target triple = "x86_64-pc-linux-gnu"

%struct.Vec_Int_t_ = type { i32, i32, ptr }
%struct.Vec_Wrd_t_ = type { i32, i32, ptr }
%struct.Abc_BSEval_t_ = type { i32, i32, ptr, ptr, ptr, ptr, ptr }

; Function Attrs: inlinehint nounwind uwtable
define internal ptr @Vec_WrdAlloc(i32 noundef %0) #3 {
  %2 = alloca i32, align 4
  %3 = alloca ptr, align 8
  store i32 %0, ptr %2, align 4, !tbaa !8
  call void @llvm.lifetime.start.p0(i64 8, ptr %3) #12
  %4 = call noalias ptr @malloc(i64 noundef 16) #14
  store ptr %4, ptr %3, align 8, !tbaa !37
  %5 = load i32, ptr %2, align 4, !tbaa !8
  %6 = icmp sgt i32 %5, 0
  br i1 %6, label %7, label %11

7:                                                ; preds = %1
  %8 = load i32, ptr %2, align 4, !tbaa !8
  %9 = icmp slt i32 %8, 16
  br i1 %9, label %10, label %11

10:                                               ; preds = %7
  store i32 16, ptr %2, align 4, !tbaa !8
  br label %11

11:                                               ; preds = %10, %7, %1
  %12 = load ptr, ptr %3, align 8, !tbaa !37
  %13 = getelementptr inbounds nuw %struct.Vec_Wrd_t_, ptr %12, i32 0, i32 1
  store i32 0, ptr %13, align 4, !tbaa !42
  %14 = load i32, ptr %2, align 4, !tbaa !8
  %15 = load ptr, ptr %3, align 8, !tbaa !37
  %16 = getelementptr inbounds nuw %struct.Vec_Wrd_t_, ptr %15, i32 0, i32 0
  store i32 %14, ptr %16, align 8, !tbaa !43
  %17 = load ptr, ptr %3, align 8, !tbaa !37
  %18 = getelementptr inbounds nuw %struct.Vec_Wrd_t_, ptr %17, i32 0, i32 0
  %19 = load i32, ptr %18, align 8, !tbaa !43
  %20 = icmp ne i32 %19, 0
  br i1 %20, label %21, label %28

21:                                               ; preds = %11
  %22 = load ptr, ptr %3, align 8, !tbaa !37
  %23 = getelementptr inbounds nuw %struct.Vec_Wrd_t_, ptr %22, i32 0, i32 0
  %24 = load i32, ptr %23, align 8, !tbaa !43
  %25 = sext i32 %24 to i64
  %26 = mul i64 8, %25
  %27 = call noalias ptr @malloc(i64 noundef %26) #14
  br label %29

28:                                               ; preds = %11
  br label %29

29:                                               ; preds = %28, %21
  %30 = phi ptr [ %27, %21 ], [ null, %28 ]
  %31 = load ptr, ptr %3, align 8, !tbaa !37
  %32 = getelementptr inbounds nuw %struct.Vec_Wrd_t_, ptr %31, i32 0, i32 2
  store ptr %30, ptr %32, align 8, !tbaa !40
  %33 = load ptr, ptr %3, align 8, !tbaa !37
  call void @llvm.lifetime.end.p0(i64 8, ptr %3) #12
  ret ptr %33
}

; Function Attrs: inlinehint nounwind uwtable
define internal ptr @Vec_IntAlloc(i32 noundef %0) #3 {
  %2 = alloca i32, align 4
  %3 = alloca ptr, align 8
  store i32 %0, ptr %2, align 4, !tbaa !8
  call void @llvm.lifetime.start.p0(i64 8, ptr %3) #12
  %4 = call noalias ptr @malloc(i64 noundef 16) #14
  store ptr %4, ptr %3, align 8, !tbaa !19
  %5 = load i32, ptr %2, align 4, !tbaa !8
  %6 = icmp sgt i32 %5, 0
  br i1 %6, label %7, label %11

7:                                                ; preds = %1
  %8 = load i32, ptr %2, align 4, !tbaa !8
  %9 = icmp slt i32 %8, 16
  br i1 %9, label %10, label %11

10:                                               ; preds = %7
  store i32 16, ptr %2, align 4, !tbaa !8
  br label %11

11:                                               ; preds = %10, %7, %1
  %12 = load ptr, ptr %3, align 8, !tbaa !19
  %13 = getelementptr inbounds nuw %struct.Vec_Int_t_, ptr %12, i32 0, i32 1
  store i32 0, ptr %13, align 4, !tbaa !26
  %14 = load i32, ptr %2, align 4, !tbaa !8
  %15 = load ptr, ptr %3, align 8, !tbaa !19
  %16 = getelementptr inbounds nuw %struct.Vec_Int_t_, ptr %15, i32 0, i32 0
  store i32 %14, ptr %16, align 8, !tbaa !28
  %17 = load ptr, ptr %3, align 8, !tbaa !19
  %18 = getelementptr inbounds nuw %struct.Vec_Int_t_, ptr %17, i32 0, i32 0
  %19 = load i32, ptr %18, align 8, !tbaa !28
  %20 = icmp ne i32 %19, 0
  br i1 %20, label %21, label %28

21:                                               ; preds = %11
  %22 = load ptr, ptr %3, align 8, !tbaa !19
  %23 = getelementptr inbounds nuw %struct.Vec_Int_t_, ptr %22, i32 0, i32 0
  %24 = load i32, ptr %23, align 8, !tbaa !28
  %25 = sext i32 %24 to i64
  %26 = mul i64 4, %25
  %27 = call noalias ptr @malloc(i64 noundef %26) #14
  br label %29

28:                                               ; preds = %11
  br label %29

29:                                               ; preds = %28, %21
  %30 = phi ptr [ %27, %21 ], [ null, %28 ]
  %31 = load ptr, ptr %3, align 8, !tbaa !19
  %32 = getelementptr inbounds nuw %struct.Vec_Int_t_, ptr %31, i32 0, i32 2
  store ptr %30, ptr %32, align 8, !tbaa !29
  %33 = load ptr, ptr %3, align 8, !tbaa !19
  call void @llvm.lifetime.end.p0(i64 8, ptr %3) #12
  ret ptr %33
}

; Function Attrs: inlinehint nounwind uwtable
define internal ptr @Vec_IntStartFull(i32 noundef %0) #3 {
  %2 = alloca i32, align 4
  %3 = alloca ptr, align 8
  store i32 %0, ptr %2, align 4, !tbaa !8
  call void @llvm.lifetime.start.p0(i64 8, ptr %3) #12
  %4 = load i32, ptr %2, align 4, !tbaa !8
  %5 = call ptr @Vec_IntAlloc(i32 noundef %4)
  store ptr %5, ptr %3, align 8, !tbaa !19
  %6 = load i32, ptr %2, align 4, !tbaa !8
  %7 = load ptr, ptr %3, align 8, !tbaa !19
  %8 = getelementptr inbounds nuw %struct.Vec_Int_t_, ptr %7, i32 0, i32 1
  store i32 %6, ptr %8, align 4, !tbaa !26
  %9 = load ptr, ptr %3, align 8, !tbaa !19
  %10 = getelementptr inbounds nuw %struct.Vec_Int_t_, ptr %9, i32 0, i32 2
  %11 = load ptr, ptr %10, align 8, !tbaa !29
  %12 = icmp ne ptr %11, null
  br i1 %12, label %13, label %20

13:                                               ; preds = %1
  %14 = load ptr, ptr %3, align 8, !tbaa !19
  %15 = getelementptr inbounds nuw %struct.Vec_Int_t_, ptr %14, i32 0, i32 2
  %16 = load ptr, ptr %15, align 8, !tbaa !29
  %17 = load i32, ptr %2, align 4, !tbaa !8
  %18 = sext i32 %17 to i64
  %19 = mul i64 4, %18
  call void @llvm.memset.p0.i64(ptr align 4 %16, i8 -1, i64 %19, i1 false)
  br label %20

20:                                               ; preds = %13, %1
  %21 = load ptr, ptr %3, align 8, !tbaa !19
  call void @llvm.lifetime.end.p0(i64 8, ptr %3) #12
  ret ptr %21
}

; Function Attrs: nounwind uwtable
define ptr @Abc_BSEvalAlloc() #0 {
  %1 = alloca ptr, align 8
  call void @llvm.lifetime.start.p0(i64 8, ptr %1) #12
  %2 = call noalias ptr @calloc(i64 noundef 1, i64 noundef 48) #15
  store ptr %2, ptr %1, align 8, !tbaa !85
  %3 = call ptr @Vec_IntStartFull(i32 noundef 65536)
  %4 = load ptr, ptr %1, align 8, !tbaa !85
  %5 = getelementptr inbounds nuw %struct.Abc_BSEval_t_, ptr %4, i32 0, i32 3
  store ptr %3, ptr %5, align 8, !tbaa !87
  %6 = call ptr @Vec_IntStartFull(i32 noundef 997)
  %7 = load ptr, ptr %1, align 8, !tbaa !85
  %8 = getelementptr inbounds nuw %struct.Abc_BSEval_t_, ptr %7, i32 0, i32 4
  store ptr %6, ptr %8, align 8, !tbaa !89
  %9 = call ptr @Vec_IntAlloc(i32 noundef 100)
  %10 = load ptr, ptr %1, align 8, !tbaa !85
  %11 = getelementptr inbounds nuw %struct.Abc_BSEval_t_, ptr %10, i32 0, i32 5
  store ptr %9, ptr %11, align 8, !tbaa !90
  %12 = call ptr @Vec_WrdAlloc(i32 noundef 1000)
  %13 = load ptr, ptr %1, align 8, !tbaa !85
  %14 = getelementptr inbounds nuw %struct.Abc_BSEval_t_, ptr %13, i32 0, i32 6
  store ptr %12, ptr %14, align 8, !tbaa !91
  %15 = load ptr, ptr %1, align 8, !tbaa !85
  call void @llvm.lifetime.end.p0(i64 8, ptr %1) #12
  ret ptr %15
}