; Function Attrs: mustprogress nofree nounwind willreturn memory(write, argmem: none, inaccessiblemem: readwrite) uwtable
define noalias noundef ptr @Abc_BSEvalAlloc() local_unnamed_addr #9 {
  %1 = tail call noalias dereferenceable_or_null(48) ptr @calloc(i64 noundef 1, i64 noundef 48) #27
  %2 = tail call noalias dereferenceable_or_null(16) ptr @malloc(i64 noundef 16) #26
  %3 = getelementptr inbounds nuw i8, ptr %2, i64 4
  store i32 65536, ptr %2, align 8, !tbaa !20
  %4 = tail call noalias dereferenceable_or_null(262144) ptr @malloc(i64 noundef 262144) #26
  %5 = getelementptr inbounds nuw i8, ptr %2, i64 8
  store ptr %4, ptr %5, align 8, !tbaa !18
  store i32 65536, ptr %3, align 4, !tbaa !14
  %.not.i = icmp eq ptr %4, null
  br i1 %.not.i, label %Vec_IntStartFull.exit, label %6

6:                                                ; preds = %0
  tail call void @llvm.memset.p0.i64(ptr noundef nonnull align 4 dereferenceable(262144) %4, i8 -1, i64 262144, i1 false)
  br label %Vec_IntStartFull.exit

Vec_IntStartFull.exit:                            ; preds = %0, %6
  %7 = getelementptr inbounds nuw i8, ptr %1, i64 16
  store ptr %2, ptr %7, align 8, !tbaa !71
  %8 = tail call noalias dereferenceable_or_null(16) ptr @malloc(i64 noundef 16) #26
  %9 = getelementptr inbounds nuw i8, ptr %8, i64 4
  store i32 997, ptr %8, align 8, !tbaa !20
  %10 = tail call noalias dereferenceable_or_null(3988) ptr @malloc(i64 noundef 3988) #26
  %11 = getelementptr inbounds nuw i8, ptr %8, i64 8
  store ptr %10, ptr %11, align 8, !tbaa !18
  store i32 997, ptr %9, align 4, !tbaa !14
  %.not.i5 = icmp eq ptr %10, null
  br i1 %.not.i5, label %Vec_IntStartFull.exit6, label %12

12:                                               ; preds = %Vec_IntStartFull.exit
  tail call void @llvm.memset.p0.i64(ptr noundef nonnull align 4 dereferenceable(3988) %10, i8 -1, i64 3988, i1 false)
  br label %Vec_IntStartFull.exit6

Vec_IntStartFull.exit6:                           ; preds = %Vec_IntStartFull.exit, %12
  %13 = getelementptr inbounds nuw i8, ptr %1, i64 24
  store ptr %8, ptr %13, align 8, !tbaa !75
  %14 = tail call noalias dereferenceable_or_null(16) ptr @malloc(i64 noundef 16) #26
  %15 = getelementptr inbounds nuw i8, ptr %14, i64 4
  store i32 0, ptr %15, align 4, !tbaa !14
  store i32 100, ptr %14, align 8, !tbaa !20
  %16 = tail call noalias dereferenceable_or_null(400) ptr @malloc(i64 noundef 400) #26
  %17 = getelementptr inbounds nuw i8, ptr %14, i64 8
  store ptr %16, ptr %17, align 8, !tbaa !18
  %18 = getelementptr inbounds nuw i8, ptr %1, i64 32
  store ptr %14, ptr %18, align 8, !tbaa !76
  %19 = tail call noalias dereferenceable_or_null(16) ptr @malloc(i64 noundef 16) #26
  %20 = getelementptr inbounds nuw i8, ptr %19, i64 4
  store i32 0, ptr %20, align 4, !tbaa !32
  store i32 1000, ptr %19, align 8, !tbaa !33
  %21 = tail call noalias dereferenceable_or_null(8000) ptr @malloc(i64 noundef 8000) #26
  %22 = getelementptr inbounds nuw i8, ptr %19, i64 8
  store ptr %21, ptr %22, align 8, !tbaa !28
  %23 = getelementptr inbounds nuw i8, ptr %1, i64 40
  store ptr %19, ptr %23, align 8, !tbaa !77
  ret ptr %1
}